target datalayout = "e-m:e-p270:32:32-p271:32:32-p272:64:64-i64:64-i128:128-f80:128-n8:16:32:64-S128"
target triple = "x86_64-pc-linux-gnu"

%struct.expert_field = type { i32, i32 }
%struct.ansi_a_shared_data_t = type { ptr, ptr, ptr, i8, i8, %struct._address, i32, %struct.e_in6_addr, i16, i8 }
%struct._address = type { i32, i32, ptr, ptr }
%struct.e_in6_addr = type { [16 x i8] }
%struct.ext_value_string_t = type { i32, ptr, i32 }

@ansi_a_elem_1_max = internal global i32 0, align 4
@ansi_a_elem_1_strings = global ptr null, align 8
@.str.282 = private unnamed_addr constant [1 x i8] zeroinitializer, align 1
@ei_ansi_a_extraneous_data = internal global %struct.expert_field zeroinitializer, align 4

; Function Attrs: alwaysinline nounwind
define internal ptr @memset.inline(ptr %0, i32 %1, i64 %2) #3 {
  %4 = alloca ptr, align 8
  %5 = alloca i32, align 4
  %6 = alloca i64, align 8
  store ptr %0, ptr %4, align 8
  store i32 %1, ptr %5, align 4
  store i64 %2, ptr %6, align 8
  %7 = load ptr, ptr %4, align 8
  %8 = load i32, ptr %5, align 4
  %9 = load i64, ptr %6, align 8
  %10 = load ptr, ptr %4, align 8
  %11 = call i64 @llvm.objectsize.i64.p0(ptr %10, i1 false, i1 true, i1 true)
  %12 = call ptr @__memset_chk(ptr noundef %7, i32 noundef %8, i64 noundef %9, i64 noundef %11) #8
  ret ptr %12
}

; Function Attrs: null_pointer_is_valid sspstrong uwtable
define hidden void @dissect_cdma2000_a1_elements(ptr noundef %0, ptr noundef %1, ptr noundef %2, i32 noundef %3, i32 noundef %4) #1 {
  %6 = alloca ptr, align 8
  %7 = alloca ptr, align 8
  %8 = alloca ptr, align 8
  %9 = alloca i32, align 4
  %10 = alloca i32, align 4
  %11 = alloca i32, align 4
  %12 = alloca i32, align 4
  %13 = alloca i32, align 4
  %14 = alloca i32, align 4
  %15 = alloca i8, align 1
  %16 = alloca %struct.ansi_a_shared_data_t, align 8
  %17 = alloca ptr, align 8
  %18 = alloca i32, align 4
  store ptr %0, ptr %6, align 8
  store ptr %1, ptr %7, align 8
  store ptr %2, ptr %8, align 8
  store i32 %3, ptr %9, align 4
  store i32 %4, ptr %10, align 4
  call void @llvm.lifetime.start.p0(i64 4, ptr %11) #8
  call void @llvm.lifetime.start.p0(i64 4, ptr %12) #8
  call void @llvm.lifetime.start.p0(i64 4, ptr %13) #8
  call void @llvm.lifetime.start.p0(i64 4, ptr %14) #8
  call void @llvm.lifetime.start.p0(i64 1, ptr %15) #8
  call void @llvm.lifetime.start.p0(i64 80, ptr %16) #8
  call void @llvm.lifetime.start.p0(i64 8, ptr %17) #8
  %19 = call ptr @memset.inline(ptr noundef %16, i32 noundef 0, i64 noundef 80) #8
  store ptr %16, ptr %17, align 8
  %20 = load ptr, ptr %8, align 8
  %21 = getelementptr inbounds nuw %struct.ansi_a_shared_data_t, ptr %16, i32 0, i32 0
  store ptr %20, ptr %21, align 8
  %22 = load i32, ptr %9, align 4
  store i32 %22, ptr %11, align 4
  %23 = load i32, ptr %10, align 4
  store i32 %23, ptr %13, align 4
  br label %24

24:                                               ; preds = %91, %5
  %25 = load i32, ptr %13, align 4
  %26 = icmp ugt i32 %25, 1
  br i1 %26, label %27, label %92

27:                                               ; preds = %24
  %28 = load ptr, ptr %6, align 8
  %29 = load i32, ptr %11, align 4
  %30 = call zeroext i8 @tvb_get_uint8(ptr noundef %28, i32 noundef %29)
  store i8 %30, ptr %15, align 1
  store i32 0, ptr %14, align 4
  br label %31

31:                                               ; preds = %71, %27
  %32 = load i32, ptr %14, align 4
  %33 = load i32, ptr @ansi_a_elem_1_max, align 4
  %34 = icmp ult i32 %32, %33
  br i1 %34, label %35, label %74

35:                                               ; preds = %31
  %36 = load i8, ptr %15, align 1
  %37 = zext i8 %36 to i32
  %38 = load ptr, ptr @ansi_a_elem_1_strings, align 8
  %39 = load i32, ptr %14, align 4
  %40 = zext i32 %39 to i64
  %41 = getelementptr %struct.ext_value_string_t, ptr %38, i64 %40
  %42 = getelementptr inbounds nuw %struct.ext_value_string_t, ptr %41, i32 0, i32 0
  %43 = load i32, ptr %42, align 8
  %44 = trunc i32 %43 to i8
  %45 = zext i8 %44 to i32
  %46 = icmp eq i32 %37, %45
  br i1 %46, label %47, label %70

47:                                               ; preds = %35
  %48 = load ptr, ptr %6, align 8
  %49 = load ptr, ptr %7, align 8
  %50 = load ptr, ptr %8, align 8
  %51 = load i32, ptr %14, align 4
  %52 = load i32, ptr %11, align 4
  %53 = load i32, ptr %13, align 4
  %54 = load ptr, ptr %17, align 8
  %55 = call zeroext i16 @elem_tlv(ptr noundef %48, ptr noundef %49, ptr noundef %50, i32 noundef %51, i32 noundef %52, i32 noundef %53, ptr noundef @.str.282, ptr noundef %54)
  %56 = zext i16 %55 to i32
  store i32 %56, ptr %12, align 4
  %57 = icmp ugt i32 %56, 0
  br i1 %57, label %58, label %65

58:                                               ; preds = %47
  %59 = load i32, ptr %12, align 4
  %60 = load i32, ptr %11, align 4
  %61 = add i32 %60, %59
  store i32 %61, ptr %11, align 4
  %62 = load i32, ptr %12, align 4
  %63 = load i32, ptr %13, align 4
  %64 = sub i32 %63, %62
  store i32 %64, ptr %13, align 4
  br label %65

65:                                               ; preds = %58, %47
  %66 = load i32, ptr %13, align 4
  %67 = icmp ule i32 %66, 0
  br i1 %67, label %68, label %69

68:                                               ; preds = %65
  store i32 1, ptr %18, align 4
  br label %108

69:                                               ; preds = %65
  br label %74

70:                                               ; preds = %35
  br label %71

71:                                               ; preds = %70
  %72 = load i32, ptr %14, align 4
  %73 = add i32 %72, 1
  store i32 %73, ptr %14, align 4
  br label %31, !llvm.loop !6

74:                                               ; preds = %69, %31
  %75 = load i32, ptr %14, align 4
  %76 = load i32, ptr @ansi_a_elem_1_max, align 4
  %77 = icmp eq i32 %75, %76
  br i1 %77, label %78, label %91

78:                                               ; preds = %74
  %79 = load ptr, ptr %6, align 8
  %80 = load i32, ptr %11, align 4
  %81 = add i32 %80, 1
  %82 = call zeroext i8 @tvb_get_uint8(ptr noundef %79, i32 noundef %81)
  %83 = zext i8 %82 to i32
  %84 = add i32 2, %83
  store i32 %84, ptr %12, align 4
  %85 = load i32, ptr %12, align 4
  %86 = load i32, ptr %11, align 4
  %87 = add i32 %86, %85
  store i32 %87, ptr %11, align 4
  %88 = load i32, ptr %12, align 4
  %89 = load i32, ptr %13, align 4
  %90 = sub i32 %89, %88
  store i32 %90, ptr %13, align 4
  br label %91

91:                                               ; preds = %78, %74
  br label %24, !llvm.loop !8

92:                                               ; preds = %24
  %93 = load i32, ptr %13, align 4
  %94 = icmp ugt i32 %93, 0
  br i1 %94, label %95, label %107

95:                                               ; preds = %92
  %96 = load ptr, ptr %8, align 8
  %97 = load ptr, ptr %7, align 8
  %98 = load ptr, ptr %6, align 8
  %99 = load i32, ptr %11, align 4
  %100 = load i32, ptr %13, align 4
  %101 = sub i32 %100, 0
  %102 = call ptr @proto_tree_add_expert(ptr noundef %96, ptr noundef %97, ptr noundef @ei_ansi_a_extraneous_data, ptr noundef %98, i32 noundef %99, i32 noundef %101)
  %103 = load i32, ptr %13, align 4
  %104 = sub i32 %103, 0
  %105 = load i32, ptr %11, align 4
  %106 = add i32 %105, %104
  store i32 %106, ptr %11, align 4
  br label %107

107:                                              ; preds = %95, %92
  store i32 0, ptr %18, align 4
  br label %108

108:                                              ; preds = %107, %68
  call void @llvm.lifetime.end.p0(i64 8, ptr %17) #8
  call void @llvm.lifetime.end.p0(i64 80, ptr %16) #8
  call void @llvm.lifetime.end.p0(i64 1, ptr %15) #8
  call void @llvm.lifetime.end.p0(i64 4, ptr %14) #8
  call void @llvm.lifetime.end.p0(i64 4, ptr %13) #8
  call void @llvm.lifetime.end.p0(i64 4, ptr %12) #8
  call void @llvm.lifetime.end.p0(i64 4, ptr %11) #8
  %109 = load i32, ptr %18, align 4
  switch i32 %109, label %111 [
    i32 0, label %110
    i32 1, label %110
  ]

110:                                              ; preds = %108, %108
  ret void

111:                                              ; preds = %108
  unreachable
}