; Function Attrs: null_pointer_is_valid sspstrong uwtable
define hidden void @dissect_cdma2000_a1_elements(ptr noundef %0, ptr noundef %1, ptr noundef %2, i32 noundef %3, i32 noundef %4) local_unnamed_addr #1 {
  %6 = alloca %struct.ansi_a_shared_data_t, align 8
  call void @llvm.lifetime.start.p0(i64 80, ptr nonnull %6) #7
  %7 = getelementptr inbounds nuw i8, ptr %6, i64 8
  call void @llvm.memset.p0.i64(ptr noundef nonnull align 8 dereferenceable(80) %7, i8 noundef 0, i64 noundef 72, i1 noundef false) #7
  store ptr %2, ptr %6, align 8
  %8 = icmp ugt i32 %4, 1
  br i1 %8, label %.lr.ph50, label %._crit_edge

.lr.ph50:                                         ; preds = %5, %32
  %.049 = phi i32 [ %.3, %32 ], [ %3, %5 ]
  %.03748 = phi i32 [ %.340, %32 ], [ %4, %5 ]
  %9 = call zeroext i8 @tvb_get_uint8(ptr noundef %0, i32 noundef %.049)
  %10 = load i32, ptr @ansi_a_elem_1_max, align 4
  %.not = icmp eq i32 %10, 0
  br i1 %.not, label %.loopexit.thread, label %.lr.ph

.lr.ph:                                           ; preds = %.lr.ph50
  %11 = load ptr, ptr @ansi_a_elem_1_strings, align 8
  %wide.trip.count = zext i32 %10 to i64
  br label %12

12:                                               ; preds = %.lr.ph, %23
  %indvars.iv = phi i64 [ 0, %.lr.ph ], [ %indvars.iv.next, %23 ]
  %13 = getelementptr %struct.ext_value_string_t, ptr %11, i64 %indvars.iv
  %14 = load i32, ptr %13, align 8
  %15 = trunc i32 %14 to i8
  %16 = icmp eq i8 %9, %15
  br i1 %16, label %17, label %23

17:                                               ; preds = %12
  %18 = trunc nuw nsw i64 %indvars.iv to i32
  %19 = call fastcc zeroext i16 @elem_tlv(ptr noundef %0, ptr noundef %1, ptr noundef %2, i32 noundef %18, i32 noundef %.049, ptr noundef nonnull @.str.282, ptr noundef nonnull %6)
  %20 = zext i16 %19 to i32
  %21 = sub i32 %.03748, %20
  %22 = icmp eq i32 %21, 0
  br i1 %22, label %.loopexit42, label %.loopexit

23:                                               ; preds = %12
  %indvars.iv.next = add nuw nsw i64 %indvars.iv, 1
  %exitcond.not = icmp eq i64 %indvars.iv.next, %wide.trip.count
  br i1 %exitcond.not, label %.loopexit.thread, label %12, !llvm.loop !6

.loopexit:                                        ; preds = %17
  %24 = add i32 %.049, %20
  %.pre = load i32, ptr @ansi_a_elem_1_max, align 4
  %25 = icmp eq i32 %.pre, %18
  br i1 %25, label %.loopexit.thread, label %32

.loopexit.thread:                                 ; preds = %23, %.lr.ph50, %.loopexit
  %.160 = phi i32 [ %24, %.loopexit ], [ %.049, %.lr.ph50 ], [ %.049, %23 ]
  %.13859 = phi i32 [ %21, %.loopexit ], [ %.03748, %.lr.ph50 ], [ %.03748, %23 ]
  %26 = add i32 %.160, 1
  %27 = call zeroext i8 @tvb_get_uint8(ptr noundef %0, i32 noundef %26)
  %28 = zext i8 %27 to i32
  %29 = add nuw nsw i32 %28, 2
  %30 = add i32 %29, %.160
  %31 = sub i32 %.13859, %29
  br label %32

32:                                               ; preds = %.loopexit.thread, %.loopexit
  %.340 = phi i32 [ %31, %.loopexit.thread ], [ %21, %.loopexit ]
  %.3 = phi i32 [ %30, %.loopexit.thread ], [ %24, %.loopexit ]
  %33 = icmp ugt i32 %.340, 1
  br i1 %33, label %.lr.ph50, label %._crit_edge, !llvm.loop !8

._crit_edge:                                      ; preds = %32, %5
  %.037.lcssa = phi i32 [ %4, %5 ], [ %.340, %32 ]
  %.0.lcssa = phi i32 [ %3, %5 ], [ %.3, %32 ]
  %.not53 = icmp eq i32 %.037.lcssa, 0
  br i1 %.not53, label %.loopexit42, label %34

34:                                               ; preds = %._crit_edge
  %35 = call ptr @proto_tree_add_expert(ptr noundef %2, ptr noundef %1, ptr noundef nonnull @ei_ansi_a_extraneous_data, ptr noundef %0, i32 noundef %.0.lcssa, i32 noundef 1)
  br label %.loopexit42

.loopexit42:                                      ; preds = %17, %._crit_edge, %34
  call void @llvm.lifetime.end.p0(i64 80, ptr nonnull %6) #7
  ret void
}